target datalayout = "e-m:e-p270:32:32-p271:32:32-p272:64:64-i64:64-i128:128-f80:128-n8:16:32:64-S128"
target triple = "x86_64-pc-linux-gnu"

%"struct.cv::aruco::DetectorParameters" = type <{ i32, i32, i32, [4 x i8], double, double, double, double, double, i32, [4 x i8], double, float, i32, i32, float, i32, [4 x i8], double, i32, i32, double, double, double, double, float, float, i32, i32, float, float, i32, i32, i8, i8, [2 x i8], i32, float, [4 x i8] }>
%"struct.cv::aruco::RefineParameters" = type <{ float, float, i8, [3 x i8] }>
%"struct.cv::Ptr.0" = type { %"class.std::shared_ptr.1" }
%"class.std::shared_ptr.1" = type { %"class.std::__shared_ptr.2" }
%"class.std::__shared_ptr.2" = type { ptr, %"class.std::__shared_count" }
%"class.std::__shared_count" = type { ptr }
%"class.cv::aruco::ArucoDetector" = type { %"class.cv::Algorithm", %"struct.cv::Ptr.0" }
%"class.cv::Algorithm" = type { ptr }
%"class.cv::Mat" = type { i32, i32, i32, i32, ptr, ptr, ptr, ptr, ptr, ptr, %"struct.cv::MatSize", %"struct.cv::MatStep" }
%"struct.cv::MatSize" = type { ptr }
%"struct.cv::MatStep" = type { ptr, [2 x i64] }
%"struct.cv::aruco::ArucoDetector::ArucoDetectorImpl" = type <{ %"class.cv::aruco::Dictionary", %"struct.cv::aruco::DetectorParameters", %"struct.cv::aruco::RefineParameters", [4 x i8] }>
%"class.cv::aruco::Dictionary" = type { %"class.cv::Mat", i32, i32 }

; Function Attrs: mustprogress nounwind uwtable
define linkonce_odr hidden noundef ptr @_ZNKSt12__shared_ptrIN2cv5aruco13ArucoDetector17ArucoDetectorImplELN9__gnu_cxx12_Lock_policyE2EE3getEv(ptr noundef nonnull align 8 dereferenceable(16) %0) #6 comdat align 2 {
  %2 = alloca ptr, align 8
  store ptr %0, ptr %2, align 8
  %3 = load ptr, ptr %2, align 8
  %4 = getelementptr inbounds %"class.std::__shared_ptr.2", ptr %3, i32 0, i32 0
  %5 = load ptr, ptr %4, align 8
  ret ptr %5
}

; Function Attrs: mustprogress uwtable
define noundef zeroext i1 @_ZN2cv5aruco16RefineParameters20readRefineParametersERKNS_8FileNodeE(ptr noundef nonnull align 4 dereferenceable(9) %0, ptr noundef nonnull align 8 dereferenceable(24) %1) #4 align 2 {
  %3 = alloca i1, align 1
  %4 = alloca ptr, align 8
  %5 = alloca ptr, align 8
  store ptr %0, ptr %4, align 8
  store ptr %1, ptr %5, align 8
  %6 = load ptr, ptr %4, align 8
  %7 = load ptr, ptr %5, align 8
  %8 = call noundef zeroext i1 @_ZNK2cv8FileNode5emptyEv(ptr noundef nonnull align 8 dereferenceable(24) %7)
  br i1 %8, label %9, label %10

9:                                                ; preds = %2
  store i1 false, ptr %3, align 1
  br label %13

10:                                               ; preds = %2
  %11 = load ptr, ptr %5, align 8
  %12 = call noundef zeroext i1 @_ZN2cv5arucoL9readWriteERNS0_16RefineParametersEPKNS_8FileNodeEPNS_11FileStorageE(ptr noundef nonnull align 4 dereferenceable(9) %6, ptr noundef %11, ptr noundef null)
  store i1 %12, ptr %3, align 1
  br label %13

13:                                               ; preds = %10, %9
  %14 = load i1, ptr %3, align 1
  ret i1 %14
}

; Function Attrs: mustprogress uwtable
define noundef zeroext i1 @_ZN2cv5aruco18DetectorParameters22readDetectorParametersERKNS_8FileNodeE(ptr noundef nonnull align 8 dereferenceable(188) %0, ptr noundef nonnull align 8 dereferenceable(24) %1) #4 align 2 {
  %3 = alloca i1, align 1
  %4 = alloca ptr, align 8
  %5 = alloca ptr, align 8
  store ptr %0, ptr %4, align 8
  store ptr %1, ptr %5, align 8
  %6 = load ptr, ptr %4, align 8
  %7 = load ptr, ptr %5, align 8
  %8 = call noundef zeroext i1 @_ZNK2cv8FileNode5emptyEv(ptr noundef nonnull align 8 dereferenceable(24) %7)
  br i1 %8, label %9, label %10

9:                                                ; preds = %2
  store i1 false, ptr %3, align 1
  br label %13

10:                                               ; preds = %2
  %11 = load ptr, ptr %5, align 8
  %12 = call noundef zeroext i1 @_ZN2cv5arucoL9readWriteERNS0_18DetectorParametersEPKNS_8FileNodeEPNS_11FileStorageE(ptr noundef nonnull align 8 dereferenceable(188) %6, ptr noundef %11, ptr noundef null)
  store i1 %12, ptr %3, align 1
  br label %13

13:                                               ; preds = %10, %9
  %14 = load i1, ptr %3, align 1
  ret i1 %14
}

; Function Attrs: mustprogress nounwind uwtable
define linkonce_odr hidden noundef ptr @_ZNK2cv3PtrINS_5aruco13ArucoDetector17ArucoDetectorImplEEptEv(ptr noundef nonnull align 8 dereferenceable(16) %0) #6 comdat align 2 {
  %2 = alloca ptr, align 8
  store ptr %0, ptr %2, align 8
  %3 = load ptr, ptr %2, align 8
  %4 = call noundef ptr @_ZNKSt12__shared_ptrIN2cv5aruco13ArucoDetector17ArucoDetectorImplELN9__gnu_cxx12_Lock_policyE2EE3getEv(ptr noundef nonnull align 8 dereferenceable(16) %3) #3
  ret ptr %4
}

; Function Attrs: mustprogress uwtable
define void @_ZN2cv5aruco13ArucoDetector4readERKNS_8FileNodeE(ptr noundef nonnull align 8 dereferenceable(24) %0, ptr noundef nonnull align 8 dereferenceable(24) %1) unnamed_addr #4 align 2 {
  %3 = alloca ptr, align 8
  %4 = alloca ptr, align 8
  store ptr %0, ptr %3, align 8
  store ptr %1, ptr %4, align 8
  %5 = load ptr, ptr %3, align 8
  %6 = getelementptr inbounds %"class.cv::aruco::ArucoDetector", ptr %5, i32 0, i32 1
  %7 = call noundef ptr @_ZNK2cv3PtrINS_5aruco13ArucoDetector17ArucoDetectorImplEEptEv(ptr noundef nonnull align 8 dereferenceable(16) %6) #3
  %8 = getelementptr inbounds %"struct.cv::aruco::ArucoDetector::ArucoDetectorImpl", ptr %7, i32 0, i32 0
  %9 = load ptr, ptr %4, align 8
  %10 = call noundef zeroext i1 @_ZN2cv5aruco10Dictionary14readDictionaryERKNS_8FileNodeE(ptr noundef nonnull align 8 dereferenceable(104) %8, ptr noundef nonnull align 8 dereferenceable(24) %9)
  %11 = getelementptr inbounds %"class.cv::aruco::ArucoDetector", ptr %5, i32 0, i32 1
  %12 = call noundef ptr @_ZNK2cv3PtrINS_5aruco13ArucoDetector17ArucoDetectorImplEEptEv(ptr noundef nonnull align 8 dereferenceable(16) %11) #3
  %13 = getelementptr inbounds %"struct.cv::aruco::ArucoDetector::ArucoDetectorImpl", ptr %12, i32 0, i32 1
  %14 = load ptr, ptr %4, align 8
  %15 = call noundef zeroext i1 @_ZN2cv5aruco18DetectorParameters22readDetectorParametersERKNS_8FileNodeE(ptr noundef nonnull align 8 dereferenceable(188) %13, ptr noundef nonnull align 8 dereferenceable(24) %14)
  %16 = getelementptr inbounds %"class.cv::aruco::ArucoDetector", ptr %5, i32 0, i32 1
  %17 = call noundef ptr @_ZNK2cv3PtrINS_5aruco13ArucoDetector17ArucoDetectorImplEEptEv(ptr noundef nonnull align 8 dereferenceable(16) %16) #3
  %18 = getelementptr inbounds %"struct.cv::aruco::ArucoDetector::ArucoDetectorImpl", ptr %17, i32 0, i32 2
  %19 = load ptr, ptr %4, align 8
  %20 = call noundef zeroext i1 @_ZN2cv5aruco16RefineParameters20readRefineParametersERKNS_8FileNodeE(ptr noundef nonnull align 4 dereferenceable(9) %18, ptr noundef nonnull align 8 dereferenceable(24) %19)
  ret void
}