; Function Attrs: mustprogress uwtable
define void @_ZN2cv5aruco13ArucoDetector4readERKNS_8FileNodeE(ptr nocapture noundef nonnull readonly align 8 dereferenceable(24) %0, ptr noundef nonnull align 8 dereferenceable(24) %1) unnamed_addr #3 align 2 {
  %3 = getelementptr inbounds i8, ptr %0, i64 8
  %4 = load ptr, ptr %3, align 8
  %5 = tail call noundef zeroext i1 @_ZN2cv5aruco10Dictionary14readDictionaryERKNS_8FileNodeE(ptr noundef nonnull align 8 dereferenceable(104) %4, ptr noundef nonnull align 8 dereferenceable(24) %1)
  %6 = load ptr, ptr %3, align 8
  %7 = tail call noundef zeroext i1 @_ZNK2cv8FileNode5emptyEv(ptr noundef nonnull align 8 dereferenceable(24) %1)
  br i1 %7, label %_ZN2cv5aruco18DetectorParameters22readDetectorParametersERKNS_8FileNodeE.exit, label %8

8:                                                ; preds = %2
  %9 = getelementptr inbounds i8, ptr %6, i64 104
  %10 = tail call fastcc noundef zeroext i1 @_ZN2cv5arucoL9readWriteERNS0_18DetectorParametersEPKNS_8FileNodeEPNS_11FileStorageE(ptr noundef nonnull align 8 dereferenceable(188) %9, ptr noundef nonnull %1, ptr noundef null)
  br label %_ZN2cv5aruco18DetectorParameters22readDetectorParametersERKNS_8FileNodeE.exit

_ZN2cv5aruco18DetectorParameters22readDetectorParametersERKNS_8FileNodeE.exit: ; preds = %2, %8
  %11 = load ptr, ptr %3, align 8
  %12 = tail call noundef zeroext i1 @_ZNK2cv8FileNode5emptyEv(ptr noundef nonnull align 8 dereferenceable(24) %1)
  br i1 %12, label %_ZN2cv5aruco16RefineParameters20readRefineParametersERKNS_8FileNodeE.exit, label %13

13:                                               ; preds = %_ZN2cv5aruco18DetectorParameters22readDetectorParametersERKNS_8FileNodeE.exit
  %14 = getelementptr inbounds i8, ptr %11, i64 296
  %15 = tail call fastcc noundef zeroext i1 @_ZN2cv5arucoL9readWriteERNS0_16RefineParametersEPKNS_8FileNodeEPNS_11FileStorageE(ptr noundef nonnull align 4 dereferenceable(9) %14, ptr noundef nonnull %1, ptr noundef null)
  br label %_ZN2cv5aruco16RefineParameters20readRefineParametersERKNS_8FileNodeE.exit

_ZN2cv5aruco16RefineParameters20readRefineParametersERKNS_8FileNodeE.exit: ; preds = %_ZN2cv5aruco18DetectorParameters22readDetectorParametersERKNS_8FileNodeE.exit, %13
  ret void
}